; Function Attrs: mustprogress nounwind uwtable
define void @_ZN4base31SharedPersistentMemoryAllocatorD2Ev(ptr noundef nonnull align 8 captures(none) dereferenceable(56) initializes((0, 8)) %0) unnamed_addr #8 align 2 personality ptr @__gxx_personality_v0 {
  store ptr getelementptr inbounds nuw inrange(-16, 16) (i8, ptr @_ZTVN4base31SharedPersistentMemoryAllocatorE, i64 16), ptr %0, align 8, !tbaa !30
  %2 = getelementptr inbounds nuw i8, ptr %0, i64 48
  %3 = load ptr, ptr %2, align 8, !tbaa !70
  %.not.i = icmp eq ptr %3, null
  br i1 %.not.i, label %_ZNSt10unique_ptrIN4base12SharedMemoryESt14default_deleteIS1_EED2Ev.exit, label %_ZNKSt14default_deleteIN4base12SharedMemoryEEclEPS1_.exit.i

_ZNKSt14default_deleteIN4base12SharedMemoryEEclEPS1_.exit.i: ; preds = %1
  tail call void @_ZN4base12SharedMemoryD1Ev(ptr noundef nonnull align 8 dereferenceable(40) %3) #18
  tail call void @_ZdlPv(ptr noundef nonnull %3) #19
  br label %_ZNSt10unique_ptrIN4base12SharedMemoryESt14default_deleteIS1_EED2Ev.exit

_ZNSt10unique_ptrIN4base12SharedMemoryESt14default_deleteIS1_EED2Ev.exit: ; preds = %1, %_ZNKSt14default_deleteIN4base12SharedMemoryEEclEPS1_.exit.i
  store ptr null, ptr %2, align 8, !tbaa !70
  ret void
}